target datalayout = "e-m:e-p270:32:32-p271:32:32-p272:64:64-i64:64-i128:128-f80:128-n8:16:32:64-S128"
target triple = "x86_64-pc-linux-gnu"

%struct.dtTileCacheParams = type { [3 x float], float, float, i32, i32, float, float, float, float, i32, i32 }
%class.dtTileCache = type { i32, i32, ptr, ptr, ptr, i32, i32, %struct.dtTileCacheParams, ptr, ptr, ptr, ptr, ptr, [64 x %"struct.dtTileCache::ObstacleRequest"], i32, [64 x i32], i32 }
%"struct.dtTileCache::ObstacleRequest" = type { i32, i32 }
%struct.dtTileCacheObstacle = type { %union.anon.0, [8 x i32], [8 x i32], i16, i8, i8, i8, i8, ptr }
%union.anon.0 = type { %struct.dtObstacleOrientedBox }
%struct.dtObstacleOrientedBox = type { [3 x float], [3 x float], [2 x float] }

; Function Attrs: mustprogress nounwind uwtable
define linkonce_odr dso_local void @_Z6rcSwapIfEvRT_S1_(ptr noundef nonnull align 4 dereferenceable(4) %0, ptr noundef nonnull align 4 dereferenceable(4) %1) #0 comdat {
  %3 = alloca ptr, align 8
  %4 = alloca ptr, align 8
  %5 = alloca float, align 4
  store ptr %0, ptr %3, align 8
  store ptr %1, ptr %4, align 8
  %6 = load ptr, ptr %3, align 8
  %7 = load float, ptr %6, align 4
  store float %7, ptr %5, align 4
  %8 = load ptr, ptr %4, align 8
  %9 = load float, ptr %8, align 4
  %10 = load ptr, ptr %3, align 8
  store float %9, ptr %10, align 4
  %11 = load float, ptr %5, align 4
  %12 = load ptr, ptr %4, align 8
  store float %11, ptr %12, align 4
  ret void
}

; Function Attrs: mustprogress nounwind uwtable
define linkonce_odr dso_local void @_Z6rcVsubPfPKfS1_(ptr noundef %0, ptr noundef %1, ptr noundef %2) #0 comdat {
  %4 = alloca ptr, align 8
  %5 = alloca ptr, align 8
  %6 = alloca ptr, align 8
  store ptr %0, ptr %4, align 8
  store ptr %1, ptr %5, align 8
  store ptr %2, ptr %6, align 8
  %7 = load ptr, ptr %5, align 8
  %8 = getelementptr inbounds float, ptr %7, i64 0
  %9 = load float, ptr %8, align 4
  %10 = load ptr, ptr %6, align 8
  %11 = getelementptr inbounds float, ptr %10, i64 0
  %12 = load float, ptr %11, align 4
  %13 = fsub float %9, %12
  %14 = load ptr, ptr %4, align 8
  %15 = getelementptr inbounds float, ptr %14, i64 0
  store float %13, ptr %15, align 4
  %16 = load ptr, ptr %5, align 8
  %17 = getelementptr inbounds float, ptr %16, i64 1
  %18 = load float, ptr %17, align 4
  %19 = load ptr, ptr %6, align 8
  %20 = getelementptr inbounds float, ptr %19, i64 1
  %21 = load float, ptr %20, align 4
  %22 = fsub float %18, %21
  %23 = load ptr, ptr %4, align 8
  %24 = getelementptr inbounds float, ptr %23, i64 1
  store float %22, ptr %24, align 4
  %25 = load ptr, ptr %5, align 8
  %26 = getelementptr inbounds float, ptr %25, i64 2
  %27 = load float, ptr %26, align 4
  %28 = load ptr, ptr %6, align 8
  %29 = getelementptr inbounds float, ptr %28, i64 2
  %30 = load float, ptr %29, align 4
  %31 = fsub float %27, %30
  %32 = load ptr, ptr %4, align 8
  %33 = getelementptr inbounds float, ptr %32, i64 2
  store float %31, ptr %33, align 4
  ret void
}

; Function Attrs: mustprogress uwtable
define internal noundef zeroext i1 @_ZL12isectSegAABBPKfS0_S0_S0_RfS1_(ptr noundef %0, ptr noundef %1, ptr noundef %2, ptr noundef %3, ptr noundef nonnull align 4 dereferenceable(4) %4, ptr noundef nonnull align 4 dereferenceable(4) %5) #5 {
  %7 = alloca i1, align 1
  %8 = alloca ptr, align 8
  %9 = alloca ptr, align 8
  %10 = alloca ptr, align 8
  %11 = alloca ptr, align 8
  %12 = alloca ptr, align 8
  %13 = alloca ptr, align 8
  %14 = alloca [3 x float], align 4
  %15 = alloca i32, align 4
  %16 = alloca float, align 4
  %17 = alloca float, align 4
  %18 = alloca float, align 4
  store ptr %0, ptr %8, align 8
  store ptr %1, ptr %9, align 8
  store ptr %2, ptr %10, align 8
  store ptr %3, ptr %11, align 8
  store ptr %4, ptr %12, align 8
  store ptr %5, ptr %13, align 8
  %19 = getelementptr inbounds [3 x float], ptr %14, i64 0, i64 0
  %20 = load ptr, ptr %9, align 8
  %21 = load ptr, ptr %8, align 8
  call void @_Z6rcVsubPfPKfS1_(ptr noundef %19, ptr noundef %20, ptr noundef %21)
  %22 = load ptr, ptr %12, align 8
  store float 0.000000e+00, ptr %22, align 4
  %23 = load ptr, ptr %13, align 8
  store float 0x47EFFFFFE0000000, ptr %23, align 4
  store i32 0, ptr %15, align 4
  br label %24

24:                                               ; preds = %121, %6
  %25 = load i32, ptr %15, align 4
  %26 = icmp slt i32 %25, 3
  br i1 %26, label %27, label %124

27:                                               ; preds = %24
  %28 = load i32, ptr %15, align 4
  %29 = sext i32 %28 to i64
  %30 = getelementptr inbounds [3 x float], ptr %14, i64 0, i64 %29
  %31 = load float, ptr %30, align 4
  %32 = call float @llvm.fabs.f32(float %31)
  %33 = fcmp olt float %32, 0x3EB0C6F7A0000000
  br i1 %33, label %34, label %60

34:                                               ; preds = %27
  %35 = load ptr, ptr %8, align 8
  %36 = load i32, ptr %15, align 4
  %37 = sext i32 %36 to i64
  %38 = getelementptr inbounds float, ptr %35, i64 %37
  %39 = load float, ptr %38, align 4
  %40 = load ptr, ptr %10, align 8
  %41 = load i32, ptr %15, align 4
  %42 = sext i32 %41 to i64
  %43 = getelementptr inbounds float, ptr %40, i64 %42
  %44 = load float, ptr %43, align 4
  %45 = fcmp olt float %39, %44
  br i1 %45, label %58, label %46

46:                                               ; preds = %34
  %47 = load ptr, ptr %8, align 8
  %48 = load i32, ptr %15, align 4
  %49 = sext i32 %48 to i64
  %50 = getelementptr inbounds float, ptr %47, i64 %49
  %51 = load float, ptr %50, align 4
  %52 = load ptr, ptr %11, align 8
  %53 = load i32, ptr %15, align 4
  %54 = sext i32 %53 to i64
  %55 = getelementptr inbounds float, ptr %52, i64 %54
  %56 = load float, ptr %55, align 4
  %57 = fcmp ogt float %51, %56
  br i1 %57, label %58, label %59

58:                                               ; preds = %46, %34
  store i1 false, ptr %7, align 1
  br label %125

59:                                               ; preds = %46
  br label %120

60:                                               ; preds = %27
  %61 = load i32, ptr %15, align 4
  %62 = sext i32 %61 to i64
  %63 = getelementptr inbounds [3 x float], ptr %14, i64 0, i64 %62
  %64 = load float, ptr %63, align 4
  %65 = fdiv float 1.000000e+00, %64
  store float %65, ptr %16, align 4
  %66 = load ptr, ptr %10, align 8
  %67 = load i32, ptr %15, align 4
  %68 = sext i32 %67 to i64
  %69 = getelementptr inbounds float, ptr %66, i64 %68
  %70 = load float, ptr %69, align 4
  %71 = load ptr, ptr %8, align 8
  %72 = load i32, ptr %15, align 4
  %73 = sext i32 %72 to i64
  %74 = getelementptr inbounds float, ptr %71, i64 %73
  %75 = load float, ptr %74, align 4
  %76 = fsub float %70, %75
  %77 = load float, ptr %16, align 4
  %78 = fmul float %76, %77
  store float %78, ptr %17, align 4
  %79 = load ptr, ptr %11, align 8
  %80 = load i32, ptr %15, align 4
  %81 = sext i32 %80 to i64
  %82 = getelementptr inbounds float, ptr %79, i64 %81
  %83 = load float, ptr %82, align 4
  %84 = load ptr, ptr %8, align 8
  %85 = load i32, ptr %15, align 4
  %86 = sext i32 %85 to i64
  %87 = getelementptr inbounds float, ptr %84, i64 %86
  %88 = load float, ptr %87, align 4
  %89 = fsub float %83, %88
  %90 = load float, ptr %16, align 4
  %91 = fmul float %89, %90
  store float %91, ptr %18, align 4
  %92 = load float, ptr %17, align 4
  %93 = load float, ptr %18, align 4
  %94 = fcmp ogt float %92, %93
  br i1 %94, label %95, label %96

95:                                               ; preds = %60
  call void @_Z6rcSwapIfEvRT_S1_(ptr noundef nonnull align 4 dereferenceable(4) %17, ptr noundef nonnull align 4 dereferenceable(4) %18)
  br label %96

96:                                               ; preds = %95, %60
  %97 = load float, ptr %17, align 4
  %98 = load ptr, ptr %12, align 8
  %99 = load float, ptr %98, align 4
  %100 = fcmp ogt float %97, %99
  br i1 %100, label %101, label %104

101:                                              ; preds = %96
  %102 = load float, ptr %17, align 4
  %103 = load ptr, ptr %12, align 8
  store float %102, ptr %103, align 4
  br label %104

104:                                              ; preds = %101, %96
  %105 = load float, ptr %18, align 4
  %106 = load ptr, ptr %13, align 8
  %107 = load float, ptr %106, align 4
  %108 = fcmp olt float %105, %107
  br i1 %108, label %109, label %112

109:                                              ; preds = %104
  %110 = load float, ptr %18, align 4
  %111 = load ptr, ptr %13, align 8
  store float %110, ptr %111, align 4
  br label %112

112:                                              ; preds = %109, %104
  %113 = load ptr, ptr %12, align 8
  %114 = load float, ptr %113, align 4
  %115 = load ptr, ptr %13, align 8
  %116 = load float, ptr %115, align 4
  %117 = fcmp ogt float %114, %116
  br i1 %117, label %118, label %119

118:                                              ; preds = %112
  store i1 false, ptr %7, align 1
  br label %125

119:                                              ; preds = %112
  br label %120

120:                                              ; preds = %119, %59
  br label %121

121:                                              ; preds = %120
  %122 = load i32, ptr %15, align 4
  %123 = add nsw i32 %122, 1
  store i32 %123, ptr %15, align 4
  br label %24, !llvm.loop !16

124:                                              ; preds = %24
  store i1 true, ptr %7, align 1
  br label %125

125:                                              ; preds = %124, %118, %58
  %126 = load i1, ptr %7, align 1
  ret i1 %126
}

; Function Attrs: mustprogress nounwind uwtable
define linkonce_odr dso_local noundef ptr @_ZNK11dtTileCache11getObstacleEi(ptr noundef nonnull align 8 dereferenceable(912) %0, i32 noundef %1) #0 comdat align 2 {
  %3 = alloca ptr, align 8
  %4 = alloca i32, align 4
  store ptr %0, ptr %3, align 8
  store i32 %1, ptr %4, align 4
  %5 = load ptr, ptr %3, align 8
  %6 = getelementptr inbounds %class.dtTileCache, ptr %5, i32 0, i32 11
  %7 = load ptr, ptr %6, align 8
  %8 = load i32, ptr %4, align 4
  %9 = sext i32 %8 to i64
  %10 = getelementptr inbounds %struct.dtTileCacheObstacle, ptr %7, i64 %9
  ret ptr %10
}

; Function Attrs: mustprogress nounwind uwtable
define linkonce_odr dso_local noundef i32 @_ZNK11dtTileCache16getObstacleCountEv(ptr noundef nonnull align 8 dereferenceable(912) %0) #0 comdat align 2 {
  %2 = alloca ptr, align 8
  store ptr %0, ptr %2, align 8
  %3 = load ptr, ptr %2, align 8
  %4 = getelementptr inbounds %class.dtTileCache, ptr %3, i32 0, i32 7
  %5 = getelementptr inbounds %struct.dtTileCacheParams, ptr %4, i32 0, i32 10
  %6 = load i32, ptr %5, align 8
  ret i32 %6
}

; Function Attrs: mustprogress uwtable
define dso_local noundef i32 @_Z15hitTestObstaclePK11dtTileCachePKfS3_(ptr noundef %0, ptr noundef %1, ptr noundef %2) #5 {
  %4 = alloca ptr, align 8
  %5 = alloca ptr, align 8
  %6 = alloca ptr, align 8
  %7 = alloca float, align 4
  %8 = alloca ptr, align 8
  %9 = alloca i32, align 4
  %10 = alloca ptr, align 8
  %11 = alloca [3 x float], align 4
  %12 = alloca [3 x float], align 4
  %13 = alloca float, align 4
  %14 = alloca float, align 4
  store ptr %0, ptr %4, align 8
  store ptr %1, ptr %5, align 8
  store ptr %2, ptr %6, align 8
  store float 0x47EFFFFFE0000000, ptr %7, align 4
  store ptr null, ptr %8, align 8
  store i32 0, ptr %9, align 4
  br label %15

15:                                               ; preds = %49, %3
  %16 = load i32, ptr %9, align 4
  %17 = load ptr, ptr %4, align 8
  %18 = call noundef i32 @_ZNK11dtTileCache16getObstacleCountEv(ptr noundef nonnull align 8 dereferenceable(912) %17)
  %19 = icmp slt i32 %16, %18
  br i1 %19, label %20, label %52

20:                                               ; preds = %15
  %21 = load ptr, ptr %4, align 8
  %22 = load i32, ptr %9, align 4
  %23 = call noundef ptr @_ZNK11dtTileCache11getObstacleEi(ptr noundef nonnull align 8 dereferenceable(912) %21, i32 noundef %22)
  store ptr %23, ptr %10, align 8
  %24 = load ptr, ptr %10, align 8
  %25 = getelementptr inbounds %struct.dtTileCacheObstacle, ptr %24, i32 0, i32 5
  %26 = load i8, ptr %25, align 1
  %27 = zext i8 %26 to i32
  %28 = icmp eq i32 %27, 0
  br i1 %28, label %29, label %30

29:                                               ; preds = %20
  br label %49

30:                                               ; preds = %20
  %31 = load ptr, ptr %4, align 8
  %32 = load ptr, ptr %10, align 8
  %33 = getelementptr inbounds [3 x float], ptr %11, i64 0, i64 0
  %34 = getelementptr inbounds [3 x float], ptr %12, i64 0, i64 0
  call void @_ZNK11dtTileCache17getObstacleBoundsEPK19dtTileCacheObstaclePfS3_(ptr noundef nonnull align 8 dereferenceable(912) %31, ptr noundef %32, ptr noundef %33, ptr noundef %34)
  %35 = load ptr, ptr %5, align 8
  %36 = load ptr, ptr %6, align 8
  %37 = getelementptr inbounds [3 x float], ptr %11, i64 0, i64 0
  %38 = getelementptr inbounds [3 x float], ptr %12, i64 0, i64 0
  %39 = call noundef zeroext i1 @_ZL12isectSegAABBPKfS0_S0_S0_RfS1_(ptr noundef %35, ptr noundef %36, ptr noundef %37, ptr noundef %38, ptr noundef nonnull align 4 dereferenceable(4) %13, ptr noundef nonnull align 4 dereferenceable(4) %14)
  br i1 %39, label %40, label %48

40:                                               ; preds = %30
  %41 = load float, ptr %13, align 4
  %42 = load float, ptr %7, align 4
  %43 = fcmp olt float %41, %42
  br i1 %43, label %44, label %47

44:                                               ; preds = %40
  %45 = load float, ptr %13, align 4
  store float %45, ptr %7, align 4
  %46 = load ptr, ptr %10, align 8
  store ptr %46, ptr %8, align 8
  br label %47

47:                                               ; preds = %44, %40
  br label %48

48:                                               ; preds = %47, %30
  br label %49

49:                                               ; preds = %48, %29
  %50 = load i32, ptr %9, align 4
  %51 = add nsw i32 %50, 1
  store i32 %51, ptr %9, align 4
  br label %15, !llvm.loop !15

52:                                               ; preds = %15
  %53 = load ptr, ptr %4, align 8
  %54 = load ptr, ptr %8, align 8
  %55 = call noundef i32 @_ZNK11dtTileCache14getObstacleRefEPK19dtTileCacheObstacle(ptr noundef nonnull align 8 dereferenceable(912) %53, ptr noundef %54)
  ret i32 %55
}