; Function Attrs: mustprogress uwtable
define dso_local noundef i32 @_Z15hitTestObstaclePK11dtTileCachePKfS3_(ptr noundef %0, ptr nocapture noundef readonly %1, ptr nocapture noundef readonly %2) local_unnamed_addr #5 {
  %4 = alloca [3 x float], align 8
  %5 = alloca [3 x float], align 4
  %6 = alloca [3 x float], align 4
  %7 = getelementptr inbounds i8, ptr %0, i64 88
  %8 = load i32, ptr %7, align 8
  %9 = icmp sgt i32 %8, 0
  br i1 %9, label %.lr.ph, label %._crit_edge

.lr.ph:                                           ; preds = %3
  %10 = getelementptr inbounds i8, ptr %0, i64 120
  %11 = getelementptr inbounds i8, ptr %2, i64 8
  %12 = getelementptr inbounds i8, ptr %1, i64 8
  %13 = getelementptr inbounds i8, ptr %4, i64 8
  br label %14

14:                                               ; preds = %.lr.ph, %70
  %indvars.iv = phi i64 [ 0, %.lr.ph ], [ %indvars.iv.next, %70 ]
  %.025 = phi float [ 0x47EFFFFFE0000000, %.lr.ph ], [ %.1, %70 ]
  %.01423 = phi ptr [ null, %.lr.ph ], [ %.115, %70 ]
  %15 = load ptr, ptr %10, align 8
  %16 = getelementptr inbounds %struct.dtTileCacheObstacle, ptr %15, i64 %indvars.iv
  %17 = getelementptr inbounds i8, ptr %16, i64 99
  %18 = load i8, ptr %17, align 1
  %19 = icmp eq i8 %18, 0
  br i1 %19, label %70, label %20

20:                                               ; preds = %14
  call void @_ZNK11dtTileCache17getObstacleBoundsEPK19dtTileCacheObstaclePfS3_(ptr noundef nonnull align 8 dereferenceable(912) %0, ptr noundef nonnull %16, ptr noundef nonnull %5, ptr noundef nonnull %6)
  call void @llvm.lifetime.start.p0(i64 12, ptr nonnull %4)
  %21 = load <2 x float>, ptr %2, align 4
  %22 = load <2 x float>, ptr %1, align 4
  %23 = fsub <2 x float> %21, %22
  store <2 x float> %23, ptr %4, align 8
  %24 = load float, ptr %11, align 4
  %25 = load float, ptr %12, align 4
  %26 = fsub float %24, %25
  store float %26, ptr %13, align 8
  br label %27

27:                                               ; preds = %64, %20
  %.020 = phi float [ 0.000000e+00, %20 ], [ %.222, %64 ]
  %.018 = phi float [ 0x47EFFFFFE0000000, %20 ], [ %.2, %64 ]
  %28 = phi float [ 0x47EFFFFFE0000000, %20 ], [ %65, %64 ]
  %29 = phi float [ 0x47EFFFFFE0000000, %20 ], [ %66, %64 ]
  %indvars.iv.i = phi i64 [ 0, %20 ], [ %indvars.iv.next.i, %64 ]
  %30 = phi i1 [ false, %20 ], [ %67, %64 ]
  %31 = getelementptr inbounds [3 x float], ptr %4, i64 0, i64 %indvars.iv.i
  %32 = load float, ptr %31, align 4
  %33 = call float @llvm.fabs.f32(float %32)
  %34 = fcmp olt float %33, 0x3EB0C6F7A0000000
  br i1 %34, label %35, label %45

35:                                               ; preds = %27
  %36 = getelementptr inbounds float, ptr %1, i64 %indvars.iv.i
  %37 = load float, ptr %36, align 4
  %38 = getelementptr inbounds float, ptr %5, i64 %indvars.iv.i
  %39 = load float, ptr %38, align 4
  %40 = fcmp olt float %37, %39
  br i1 %40, label %_ZL12isectSegAABBPKfS0_S0_S0_RfS1_.exit, label %41

41:                                               ; preds = %35
  %42 = getelementptr inbounds float, ptr %6, i64 %indvars.iv.i
  %43 = load float, ptr %42, align 4
  %44 = fcmp ogt float %37, %43
  br i1 %44, label %_ZL12isectSegAABBPKfS0_S0_S0_RfS1_.exit, label %64

45:                                               ; preds = %27
  %46 = fdiv float 1.000000e+00, %32
  %47 = getelementptr inbounds float, ptr %5, i64 %indvars.iv.i
  %48 = load float, ptr %47, align 4
  %49 = getelementptr inbounds float, ptr %1, i64 %indvars.iv.i
  %50 = load float, ptr %49, align 4
  %51 = fsub float %48, %50
  %52 = fmul float %46, %51
  %53 = getelementptr inbounds float, ptr %6, i64 %indvars.iv.i
  %54 = load float, ptr %53, align 4
  %55 = fsub float %54, %50
  %56 = fmul float %46, %55
  %57 = fcmp ogt float %52, %56
  %.039.i = select i1 %57, float %56, float %52
  %.0.i = select i1 %57, float %52, float %56
  %58 = fcmp ogt float %.039.i, %.020
  %.121 = select i1 %58, float %.039.i, float %.020
  %59 = select i1 %58, float %.018, float %28
  %60 = select i1 %58, float %.018, float %29
  %61 = fcmp olt float %.0.i, %60
  %.119 = select i1 %61, float %.0.i, float %.018
  %62 = select i1 %61, float %.0.i, float %59
  %63 = fcmp ogt float %.121, %62
  br i1 %63, label %_ZL12isectSegAABBPKfS0_S0_S0_RfS1_.exit, label %64

64:                                               ; preds = %45, %41
  %.222 = phi float [ %.020, %41 ], [ %.121, %45 ]
  %.2 = phi float [ %.018, %41 ], [ %.119, %45 ]
  %65 = phi float [ %28, %41 ], [ %62, %45 ]
  %66 = phi float [ %29, %41 ], [ %62, %45 ]
  %indvars.iv.next.i = add nuw nsw i64 %indvars.iv.i, 1
  %67 = icmp ugt i64 %indvars.iv.i, 1
  %exitcond.i = icmp eq i64 %indvars.iv.next.i, 3
  br i1 %exitcond.i, label %_ZL12isectSegAABBPKfS0_S0_S0_RfS1_.exit, label %27, !llvm.loop !15

_ZL12isectSegAABBPKfS0_S0_S0_RfS1_.exit:          ; preds = %35, %41, %45, %64
  %.3 = phi float [ %.020, %35 ], [ %.020, %41 ], [ %.222, %64 ], [ %.121, %45 ]
  %.lcssa.i = phi i1 [ %30, %35 ], [ %30, %41 ], [ %67, %64 ], [ %30, %45 ]
  call void @llvm.lifetime.end.p0(i64 12, ptr nonnull %4)
  %68 = fcmp olt float %.3, %.025
  %or.cond = select i1 %.lcssa.i, i1 %68, i1 false
  br i1 %or.cond, label %69, label %70

69:                                               ; preds = %_ZL12isectSegAABBPKfS0_S0_S0_RfS1_.exit
  br label %70

70:                                               ; preds = %_ZL12isectSegAABBPKfS0_S0_S0_RfS1_.exit, %69, %14
  %.115 = phi ptr [ %.01423, %14 ], [ %16, %69 ], [ %.01423, %_ZL12isectSegAABBPKfS0_S0_S0_RfS1_.exit ]
  %.1 = phi float [ %.025, %14 ], [ %.3, %69 ], [ %.025, %_ZL12isectSegAABBPKfS0_S0_S0_RfS1_.exit ]
  %indvars.iv.next = add nuw nsw i64 %indvars.iv, 1
  %71 = load i32, ptr %7, align 8
  %72 = sext i32 %71 to i64
  %73 = icmp slt i64 %indvars.iv.next, %72
  br i1 %73, label %14, label %._crit_edge, !llvm.loop !16

._crit_edge:                                      ; preds = %70, %3
  %.014.lcssa = phi ptr [ null, %3 ], [ %.115, %70 ]
  %74 = call noundef i32 @_ZNK11dtTileCache14getObstacleRefEPK19dtTileCacheObstacle(ptr noundef nonnull align 8 dereferenceable(912) %0, ptr noundef %.014.lcssa)
  ret i32 %74
}